; Function Attrs: mustprogress nofree norecurse nosync nounwind willreturn memory(read, inaccessiblemem: none) uwtable
define hidden noundef zeroext i1 @_ZNK5ZMark8is_arrayE8zaddress(ptr nocapture noundef nonnull readnone align 64 dereferenceable(2652) %0, i64 noundef %1) local_unnamed_addr #4 align 2 {
  %3 = inttoptr i64 %1 to ptr
  %4 = load i8, ptr @UseCompressedClassPointers, align 1
  %5 = trunc i8 %4 to i1
  %6 = getelementptr inbounds i8, ptr %3, i64 8
  br i1 %5, label %7, label %17

7:                                                ; preds = %2
  %8 = load i32, ptr %6, align 8
  %9 = load ptr, ptr @_ZN23CompressedKlassPointers5_baseE, align 8
  %10 = load i32, ptr @_ZN23CompressedKlassPointers6_shiftE, align 4
  %11 = ptrtoint ptr %9 to i64
  %12 = zext i32 %8 to i64
  %13 = zext nneg i32 %10 to i64
  %14 = shl i64 %12, %13
  %15 = add i64 %14, %11
  %16 = inttoptr i64 %15 to ptr
  br label %_ZNK7oopDesc11is_objArrayEv.exit

17:                                               ; preds = %2
  %18 = load ptr, ptr %6, align 8
  br label %_ZNK7oopDesc11is_objArrayEv.exit

_ZNK7oopDesc11is_objArrayEv.exit:                 ; preds = %7, %17
  %.0.i.i = phi ptr [ %16, %7 ], [ %18, %17 ]
  %19 = getelementptr inbounds i8, ptr %.0.i.i, i64 12
  %20 = load i32, ptr %19, align 4
  %21 = icmp eq i32 %20, 6
  ret i1 %21
}